Certificate:
    Data:
        Version: 3 (0x2)
        Serial Number: 2 (0x2)
    Signature Algorithm: sha256WithRSAEncryption
        Issuer: C=RO, ST=B, L=Bucharest, O=CCSIR, OU=DCTF, CN=CCSIR CA/name=dctf/emailAddress=dctf-ca@shark0der.com
        Validity
            Not Before: Sep  4 12:11:10 2016 GMT
            Not After : Sep  2 12:11:10 2026 GMT
        Subject: C=RO, ST=B, L=Bucharest, O=CCSIR, OU=DCTF, CN=dctfuser/name=dctf/emailAddress=dctf-ca@shark0der.com
        Subject Public Key Info:
            Public Key Algorithm: rsaEncryption
                Public-Key: (2048 bit)
                Modulus:
                    00:b1:54:79:3a:4e:47:56:07:ba:c4:5c:15:f1:ce:
                    b6:72:4a:bf:66:96:f5:41:47:d3:98:f1:28:43:aa:
                    c8:24:63:5a:6f:73:15:4c:33:c1:8c:cd:43:be:92:
                    66:67:8b:80:a5:70:79:34:c3:10:72:e0:07:b4:3d:
                    6f:a3:be:16:1b:1f:11:d4:00:31:d9:a5:3a:a2:3d:
                    96:c0:c3:e2:98:73:a8:91:ba:0c:cd:bd:b7:1b:c6:
                    94:e0:cd:14:65:ae:b9:67:b5:f4:f9:10:db:99:55:
                    de:a7:ac:98:2f:5a:68:19:e1:09:46:27:87:5d:1a:
                    01:a3:94:85:cb:b4:23:5b:08:7f:97:35:1b:01:fe:
                    61:c0:a9:db:52:d0:4c:50:fd:48:db:fa:1f:dc:46:
                    a7:3c:b1:c0:b1:64:f0:e7:be:9f:73:0e:a1:6e:93:
                    40:7c:6f:0e:92:eb:a6:28:59:94:63:d3:d1:26:3b:
                    1d:60:2d:0c:e0:77:7e:d5:3b:1e:d3:71:51:e5:eb:
                    9d:8a:49:37:b9:4b:a4:a1:60:89:68:98:8b:17:90:
                    49:39:fa:d9:b1:ff:88:63:9a:8b:d8:61:f4:22:c8:
                    f5:c2:7d:01:a7:fe:1f:e9:b0:83:16:d6:18:1b:5f:
                    1e:c4:58:0d:c7:c7:f3:04:9d:0c:2e:35:3b:83:35:
                    06:0d
                Exponent: 65537 (0x10001)
        X509v3 extensions:
            X509v3 Basic Constraints: 
                CA:FALSE
            Netscape Comment: 
                Easy-RSA Generated Certificate
            X509v3 Subject Key Identifier: 
                BF:D4:CB:3E:45:1A:CD:59:35:E6:23:99:09:99:5A:F5:04:AA:41:D5
            X509v3 Authority Key Identifier: 
                keyid:54:71:73:42:4A:E2:1C:F0:4A:45:11:3C:53:8E:0F:2F:63:22:3E:1E
                DirName:/C=RO/ST=B/L=Bucharest/O=CCSIR/OU=DCTF/CN=CCSIR CA/name=dctf/emailAddress=dctf-ca@shark0der.com
                serial:A3:59:E7:A3:0F:26:24:EB

            X509v3 Extended Key Usage: 
                TLS Web Client Authentication
            X509v3 Key Usage: 
                Digital Signature
            X509v3 Subject Alternative Name: 
                DNS:dctfuser
    Signature Algorithm: sha256WithRSAEncryption
         d9:3d:eb:e9:f7:e3:20:be:53:99:41:f4:4d:77:a1:5e:13:aa:
         2b:0b:4b:5c:41:4c:d8:0f:f3:db:57:87:eb:dc:81:f9:28:21:
         53:3e:b8:8b:5d:73:8d:fb:06:6a:67:91:3a:80:d5:c2:06:78:
         82:b7:07:0d:1b:66:bd:c2:61:37:61:e3:26:db:d4:23:87:4a:
         4d:1d:11:ce:8e:5c:c5:6a:c4:94:9e:5c:cf:43:eb:3c:dd:32:
         ed:75:8d:7f:28:1c:09:f9:37:59:13:76:59:72:9a:44:84:fb:
         ae:2e:f7:5f:5c:7c:2c:ff:c7:62:dc:3e:9b:1f:ae:7b:f1:46:
         f5:c0:65:41:df:af:63:26:5c:b7:ef:5f:47:96:b4:5b:52:1d:
         b6:6a:40:ad:2a:ca:f7:9f:cf:ad:e3:d2:13:0d:e7:b3:08:9a:
         74:12:45:aa:48:70:8f:66:f0:28:03:bb:03:16:77:33:8a:63:
         33:a9:c5:22:b5:31:45:d6:77:71:d5:5c:58:31:46:7d:cf:34:
         f3:3a:0d:ab:09:2d:35:2f:76:e6:56:0e:7c:da:ba:3d:36:2d:
         07:65:9f:e9:7f:3a:84:5c:2a:44:4b:93:36:69:bb:7d:f5:1d:
         cd:96:85:be:d3:12:f8:65:3e:86:27:97:a4:d8:b5:2a:88:39:
         aa:33:d3:01
-----BEGIN CERTIFICATE-----
MIIFBzCCA++gAwIBAgIBAjANBgkqhkiG9w0BAQsFADCBlDELMAkGA1UEBhMCUk8x
CjAIBgNVBAgTAUIxEjAQBgNVBAcTCUJ1Y2hhcmVzdDEOMAwGA1UEChMFQ0NTSVIx
DTALBgNVBAsTBERDVEYxETAPBgNVBAMTCENDU0lSIENBMQ0wCwYDVQQpEwRkY3Rm
MSQwIgYJKoZIhvcNAQkBFhVkY3RmLWNhQHNoYXJrMGRlci5jb20wHhcNMTYwOTA0
MTIxMTEwWhcNMjYwOTAyMTIxMTEwWjCBlDELMAkGA1UEBhMCUk8xCjAIBgNVBAgT
AUIxEjAQBgNVBAcTCUJ1Y2hhcmVzdDEOMAwGA1UEChMFQ0NTSVIxDTALBgNVBAsT
BERDVEYxETAPBgNVBAMTCGRjdGZ1c2VyMQ0wCwYDVQQpEwRkY3RmMSQwIgYJKoZI
hvcNAQkBFhVkY3RmLWNhQHNoYXJrMGRlci5jb20wggEiMA0GCSqGSIb3DQEBAQUA
A4IBDwAwggEKAoIBAQCxVHk6TkdWB7rEXBXxzrZySr9mlvVBR9OY8ShDqsgkY1pv
cxVMM8GMzUO+kmZni4ClcHk0wxBy4Ae0PW+jvhYbHxHUADHZpTqiPZbAw+KYc6iR
ugzNvbcbxpTgzRRlrrlntfT5ENuZVd6nrJgvWmgZ4QlGJ4ddGgGjlIXLtCNbCH+X
NRsB/mHAqdtS0ExQ/Ujb+h/cRqc8scCxZPDnvp9zDqFuk0B8bw6S66YoWZRj09Em
Ox1gLQzgd37VOx7TcVHl652KSTe5S6ShYIlomIsXkEk5+tmx/4hjmovYYfQiyPXC
fQGn/h/psIMW1hgbXx7EWA3Hx/MEnQwuNTuDNQYNAgMBAAGjggFgMIIBXDAJBgNV
HRMEAjAAMC0GCWCGSAGG+EIBDQQgFh5FYXN5LVJTQSBHZW5lcmF0ZWQgQ2VydGlm
aWNhdGUwHQYDVR0OBBYEFL/Uyz5FGs1ZNeYjmQmZWvUEqkHVMIHJBgNVHSMEgcEw
gb6AFFRxc0JK4hzwSkURPFOODy9jIj4eoYGapIGXMIGUMQswCQYDVQQGEwJSTzEK
MAgGA1UECBMBQjESMBAGA1UEBxMJQnVjaGFyZXN0MQ4wDAYDVQQKEwVDQ1NJUjEN
MAsGA1UECxMERENURjERMA8GA1UEAxMIQ0NTSVIgQ0ExDTALBgNVBCkTBGRjdGYx
JDAiBgkqhkiG9w0BCQEWFWRjdGYtY2FAc2hhcmswZGVyLmNvbYIJAKNZ56MPJiTr
MBMGA1UdJQQMMAoGCCsGAQUFBwMCMAsGA1UdDwQEAwIHgDATBgNVHREEDDAKgghk
Y3RmdXNlcjANBgkqhkiG9w0BAQsFAAOCAQEA2T3r6ffjIL5TmUH0TXehXhOqKwtL
XEFM2A/z21eH69yB+SghUz64i11zjfsGameROoDVwgZ4grcHDRtmvcJhN2HjJtvU
I4dKTR0Rzo5cxWrElJ5cz0PrPN0y7XWNfygcCfk3WRN2WXKaRIT7ri73X1x8LP/H
Ytw+mx+ue/FG9cBlQd+vYyZct+9fR5a0W1IdtmpArSrK95/PrePSEw3nswiadBJF
qkhwj2bwKAO7AxZ3M4pjM6nFIrUxRdZ3cdVcWDFGfc808zoNqwktNS925lYOfNq6
PTYtB2Wf6X86hFwqREuTNmm7ffUdzZaFvtMS+GU+hieXpNi1Kog5qjPTAQ==
-----END CERTIFICATE-----
